; Function Attrs: nofree norecurse nosync nounwind memory(argmem: readwrite) uwtable
define internal void @Copy_24_To_24(ptr noundef writeonly captures(none) %0, i32 noundef %1, ptr noundef readonly captures(none) %2, i32 noundef %3, i32 noundef %4, ptr readnone captures(none) %5) #2 {
  %.not14 = icmp eq i32 %4, 0
  br i1 %.not14, label %._crit_edge, label %.lr.ph

.lr.ph:                                           ; preds = %6
  %7 = mul nsw i32 %3, 3
  %8 = sext i32 %7 to i64
  %9 = mul nsw i32 %1, 3
  %10 = sext i32 %9 to i64
  br label %11

11:                                               ; preds = %.lr.ph, %11
  %.017 = phi ptr [ %0, %.lr.ph ], [ %21, %11 ]
  %.01216 = phi ptr [ %2, %.lr.ph ], [ %20, %11 ]
  %.01315 = phi i32 [ %4, %.lr.ph ], [ %12, %11 ]
  %12 = add i32 %.01315, -1
  %13 = load i8, ptr %.01216, align 1, !tbaa !76
  store i8 %13, ptr %.017, align 1, !tbaa !76
  %14 = getelementptr inbounds nuw i8, ptr %.01216, i64 1
  %15 = load i8, ptr %14, align 1, !tbaa !76
  %16 = getelementptr inbounds nuw i8, ptr %.017, i64 1
  store i8 %15, ptr %16, align 1, !tbaa !76
  %17 = getelementptr inbounds nuw i8, ptr %.01216, i64 2
  %18 = load i8, ptr %17, align 1, !tbaa !76
  %19 = getelementptr inbounds nuw i8, ptr %.017, i64 2
  store i8 %18, ptr %19, align 1, !tbaa !76
  %20 = getelementptr inbounds i8, ptr %.01216, i64 %8
  %21 = getelementptr inbounds i8, ptr %.017, i64 %10
  %.not = icmp eq i32 %12, 0
  br i1 %.not, label %._crit_edge, label %11, !llvm.loop !126

._crit_edge:                                      ; preds = %11, %6
  ret void
}